; Function Attrs: nounwind uwtable
define internal void @mempacket_free(ptr noundef %0) #0 {
  %2 = load ptr, ptr %0, align 8, !tbaa !28
  %.not = icmp eq ptr %2, null
  br i1 %.not, label %4, label %3

3:                                                ; preds = %1
  tail call void @CRYPTO_free(ptr noundef nonnull %2, ptr noundef nonnull @.str.1, i32 noundef 267) #14
  br label %4

4:                                                ; preds = %3, %1
  tail call void @CRYPTO_free(ptr noundef nonnull %0, ptr noundef nonnull @.str.1, i32 noundef 268) #14
  ret void
}